target datalayout = "e-m:e-p270:32:32-p271:32:32-p272:64:64-i64:64-i128:128-f80:128-n8:16:32:64-S128"
target triple = "x86_64-pc-linux-gnu"

%"class.icu_77::StringPiece" = type <{ ptr, i32, [4 x i8] }>
%"class.icu_77::IDNAInfo" = type <{ i32, i32, i8, i8, i8, i8 }>
%struct.UIDNAInfo = type { i16, i8, i8, i32, i32, i32 }
%"class.icu_77::CheckedArrayByteSink" = type <{ %"class.icu_77::ByteSink", ptr, i32, i32, i32, i8, [3 x i8] }>
%"class.icu_77::ByteSink" = type { ptr }
%class.anon.1 = type { ptr, ptr, ptr }

; Function Attrs: mustprogress nounwind uwtable
define linkonce_odr noundef i32 @_ZNK6icu_778IDNAInfo9getErrorsEv(ptr noundef nonnull align 4 dereferenceable(11) %0) #0 comdat align 2 {
  %2 = alloca ptr, align 8
  store ptr %0, ptr %2, align 8, !tbaa !27
  %3 = load ptr, ptr %2, align 8
  %4 = getelementptr inbounds nuw %"class.icu_77::IDNAInfo", ptr %3, i32 0, i32 0
  %5 = load i32, ptr %4, align 4, !tbaa !44
  ret i32 %5
}

; Function Attrs: mustprogress nounwind uwtable
define linkonce_odr noundef signext i8 @_ZNK6icu_778IDNAInfo23isTransitionalDifferentEv(ptr noundef nonnull align 4 dereferenceable(11) %0) #0 comdat align 2 {
  %2 = alloca ptr, align 8
  store ptr %0, ptr %2, align 8, !tbaa !27
  %3 = load ptr, ptr %2, align 8
  %4 = getelementptr inbounds nuw %"class.icu_77::IDNAInfo", ptr %3, i32 0, i32 2
  %5 = load i8, ptr %4, align 4, !tbaa !55
  ret i8 %5
}

; Function Attrs: mustprogress uwtable
define internal void @_ZL16idnaInfoToStructRN6icu_778IDNAInfoEP9UIDNAInfo(ptr noundef nonnull align 4 dereferenceable(11) %0, ptr noundef %1) #1 {
  %3 = alloca ptr, align 8
  %4 = alloca ptr, align 8
  store ptr %0, ptr %3, align 8, !tbaa !27
  store ptr %1, ptr %4, align 8, !tbaa !85
  %5 = load ptr, ptr %3, align 8, !tbaa !27
  %6 = call noundef signext i8 @_ZNK6icu_778IDNAInfo23isTransitionalDifferentEv(ptr noundef nonnull align 4 dereferenceable(11) %5)
  %7 = load ptr, ptr %4, align 8, !tbaa !85
  %8 = getelementptr inbounds nuw %struct.UIDNAInfo, ptr %7, i32 0, i32 1
  store i8 %6, ptr %8, align 2, !tbaa !94
  %9 = load ptr, ptr %3, align 8, !tbaa !27
  %10 = call noundef i32 @_ZNK6icu_778IDNAInfo9getErrorsEv(ptr noundef nonnull align 4 dereferenceable(11) %9)
  %11 = load ptr, ptr %4, align 8, !tbaa !85
  %12 = getelementptr inbounds nuw %struct.UIDNAInfo, ptr %11, i32 0, i32 3
  store i32 %10, ptr %12, align 4, !tbaa !95
  ret void
}

; Function Attrs: mustprogress nounwind uwtable
define linkonce_odr void @_ZN6icu_778IDNAInfoC2Ev(ptr noundef nonnull align 4 dereferenceable(11) %0) unnamed_addr #0 comdat align 2 {
  %2 = alloca ptr, align 8
  store ptr %0, ptr %2, align 8, !tbaa !27
  %3 = load ptr, ptr %2, align 8
  %4 = getelementptr inbounds nuw %"class.icu_77::IDNAInfo", ptr %3, i32 0, i32 0
  store i32 0, ptr %4, align 4, !tbaa !44
  %5 = getelementptr inbounds nuw %"class.icu_77::IDNAInfo", ptr %3, i32 0, i32 1
  store i32 0, ptr %5, align 4, !tbaa !46
  %6 = getelementptr inbounds nuw %"class.icu_77::IDNAInfo", ptr %3, i32 0, i32 2
  store i8 0, ptr %6, align 4, !tbaa !55
  %7 = getelementptr inbounds nuw %"class.icu_77::IDNAInfo", ptr %3, i32 0, i32 3
  store i8 0, ptr %7, align 1, !tbaa !51
  %8 = getelementptr inbounds nuw %"class.icu_77::IDNAInfo", ptr %3, i32 0, i32 4
  store i8 1, ptr %8, align 2, !tbaa !52
  ret void
}

; Function Attrs: mustprogress nounwind uwtable
define linkonce_odr noundef signext i8 @_ZNK6icu_7720CheckedArrayByteSink10OverflowedEv(ptr noundef nonnull align 8 dereferenceable(29) %0) #0 comdat align 2 {
  %2 = alloca ptr, align 8
  store ptr %0, ptr %2, align 8, !tbaa !121
  %3 = load ptr, ptr %2, align 8
  %4 = getelementptr inbounds nuw %"class.icu_77::CheckedArrayByteSink", ptr %3, i32 0, i32 5
  %5 = load i8, ptr %4, align 4, !tbaa !126
  ret i8 %5
}

; Function Attrs: mustprogress nounwind uwtable
define linkonce_odr noundef i32 @_ZNK6icu_7720CheckedArrayByteSink21NumberOfBytesAppendedEv(ptr noundef nonnull align 8 dereferenceable(29) %0) #0 comdat align 2 {
  %2 = alloca ptr, align 8
  store ptr %0, ptr %2, align 8, !tbaa !121
  %3 = load ptr, ptr %2, align 8
  %4 = getelementptr inbounds nuw %"class.icu_77::CheckedArrayByteSink", ptr %3, i32 0, i32 4
  %5 = load i32, ptr %4, align 8, !tbaa !123
  ret i32 %5
}

; Function Attrs: inlinehint mustprogress uwtable
define internal void @"_ZZ27uidna_labelToUnicodeUTF8_77ENK3$_0clERN6icu_778ByteSinkER10UErrorCode"(ptr noundef nonnull align 8 dereferenceable(24) %0, ptr noundef nonnull align 8 dereferenceable(8) %1, ptr noundef nonnull align 4 dereferenceable(4) %2) #3 align 2 {
  %4 = alloca ptr, align 8
  %5 = alloca ptr, align 8
  %6 = alloca ptr, align 8
  %7 = alloca %"class.icu_77::IDNAInfo", align 4
  %8 = alloca %"class.icu_77::StringPiece", align 8
  store ptr %0, ptr %4, align 8, !tbaa !22
  store ptr %1, ptr %5, align 8, !tbaa !25
  store ptr %2, ptr %6, align 8, !tbaa !22
  %9 = load ptr, ptr %4, align 8
  call void @llvm.lifetime.start.p0(i64 12, ptr %7) #13
  call void @_ZN6icu_778IDNAInfoC2Ev(ptr noundef nonnull align 4 dereferenceable(11) %7)
  %10 = getelementptr inbounds nuw %class.anon.1, ptr %9, i32 0, i32 0
  %11 = load ptr, ptr %10, align 8, !tbaa !127
  %12 = load ptr, ptr %11, align 8, !tbaa !83
  %13 = getelementptr inbounds nuw %class.anon.1, ptr %9, i32 0, i32 1
  %14 = load ptr, ptr %13, align 8, !tbaa !129
  call void @llvm.memcpy.p0.p0.i64(ptr align 8 %8, ptr align 8 %14, i64 16, i1 false)
  %15 = load ptr, ptr %5, align 8, !tbaa !25
  %16 = load ptr, ptr %6, align 8, !tbaa !22
  %17 = getelementptr inbounds nuw { ptr, i32 }, ptr %8, i32 0, i32 0
  %18 = load ptr, ptr %17, align 8
  %19 = getelementptr inbounds nuw { ptr, i32 }, ptr %8, i32 0, i32 1
  %20 = load i32, ptr %19, align 8
  %21 = load ptr, ptr %12, align 8, !tbaa !29
  %22 = getelementptr inbounds ptr, ptr %21, i64 8
  %23 = load ptr, ptr %22, align 8
  call void %23(ptr noundef nonnull align 8 dereferenceable(8) %12, ptr %18, i32 %20, ptr noundef nonnull align 8 dereferenceable(8) %15, ptr noundef nonnull align 4 dereferenceable(11) %7, ptr noundef nonnull align 4 dereferenceable(4) %16)
  %24 = getelementptr inbounds nuw %class.anon.1, ptr %9, i32 0, i32 2
  %25 = load ptr, ptr %24, align 8, !tbaa !130
  %26 = load ptr, ptr %25, align 8, !tbaa !85
  call void @_ZL16idnaInfoToStructRN6icu_778IDNAInfoEP9UIDNAInfo(ptr noundef nonnull align 4 dereferenceable(11) %7, ptr noundef %26)
  call void @llvm.lifetime.end.p0(i64 12, ptr %7) #13
  ret void
}

; Function Attrs: inlinehint mustprogress nounwind uwtable
define internal noundef signext i8 @_ZL9U_FAILURE10UErrorCode(i32 noundef %0) #2 {
  %2 = alloca i32, align 4
  store i32 %0, ptr %2, align 4, !tbaa !15
  %3 = load i32, ptr %2, align 4, !tbaa !15
  %4 = icmp sgt i32 %3, 0
  %5 = zext i1 %4 to i8
  ret i8 %5
}

; Function Attrs: mustprogress uwtable
define internal noundef i32 @"_ZN6icu_7712ByteSinkUtil28viaByteSinkToTerminatedCharsIZ27uidna_labelToUnicodeUTF8_77E3$_0vEEiPciOT_R10UErrorCode"(ptr noundef %0, i32 noundef %1, ptr noundef nonnull align 8 dereferenceable(24) %2, ptr noundef nonnull align 4 dereferenceable(4) %3) #1 align 2 personality ptr @__gxx_personality_v0 {
  %5 = alloca i32, align 4
  %6 = alloca ptr, align 8
  %7 = alloca i32, align 4
  %8 = alloca ptr, align 8
  %9 = alloca ptr, align 8
  %10 = alloca %"class.icu_77::CheckedArrayByteSink", align 8
  %11 = alloca ptr, align 8
  %12 = alloca i32, align 4
  %13 = alloca i32, align 4
  %14 = alloca i32, align 4
  store ptr %0, ptr %6, align 8, !tbaa !17
  store i32 %1, ptr %7, align 4, !tbaa !14
  store ptr %2, ptr %8, align 8, !tbaa !22
  store ptr %3, ptr %9, align 8, !tbaa !22
  %15 = load ptr, ptr %9, align 8, !tbaa !22
  %16 = load i32, ptr %15, align 4, !tbaa !15
  %17 = call noundef signext i8 @_ZL9U_FAILURE10UErrorCode(i32 noundef %16)
  %18 = icmp ne i8 %17, 0
  br i1 %18, label %19, label %20

19:                                               ; preds = %4
  store i32 0, ptr %5, align 4
  br label %56

20:                                               ; preds = %4
  call void @llvm.lifetime.start.p0(i64 32, ptr %10) #13
  %21 = load ptr, ptr %6, align 8, !tbaa !17
  %22 = load i32, ptr %7, align 4, !tbaa !14
  call void @_ZN6icu_7720CheckedArrayByteSinkC1EPci(ptr noundef nonnull align 8 dereferenceable(29) %10, ptr noundef %21, i32 noundef %22)
  %23 = load ptr, ptr %8, align 8, !tbaa !22
  %24 = load ptr, ptr %9, align 8, !tbaa !22
  invoke void @"_ZZ27uidna_labelToUnicodeUTF8_77ENK3$_0clERN6icu_778ByteSinkER10UErrorCode"(ptr noundef nonnull align 8 dereferenceable(24) %23, ptr noundef nonnull align 8 dereferenceable(8) %10, ptr noundef nonnull align 4 dereferenceable(4) %24)
          to label %25 unwind label %31

25:                                               ; preds = %20
  %26 = load ptr, ptr %9, align 8, !tbaa !22
  %27 = load i32, ptr %26, align 4, !tbaa !15
  %28 = call noundef signext i8 @_ZL9U_FAILURE10UErrorCode(i32 noundef %27)
  %29 = icmp ne i8 %28, 0
  br i1 %29, label %30, label %35

30:                                               ; preds = %25
  store i32 0, ptr %5, align 4
  store i32 1, ptr %13, align 4
  br label %54

31:                                               ; preds = %20
  %32 = landingpad { ptr, i32 }
          cleanup
  %33 = extractvalue { ptr, i32 } %32, 0
  store ptr %33, ptr %11, align 8
  %34 = extractvalue { ptr, i32 } %32, 1
  store i32 %34, ptr %12, align 4
  br label %55

35:                                               ; preds = %25
  call void @llvm.lifetime.start.p0(i64 4, ptr %14) #13
  %36 = call noundef i32 @_ZNK6icu_7720CheckedArrayByteSink21NumberOfBytesAppendedEv(ptr noundef nonnull align 8 dereferenceable(29) %10)
  store i32 %36, ptr %14, align 4, !tbaa !14
  %37 = call noundef signext i8 @_ZNK6icu_7720CheckedArrayByteSink10OverflowedEv(ptr noundef nonnull align 8 dereferenceable(29) %10)
  %38 = icmp ne i8 %37, 0
  br i1 %38, label %39, label %42

39:                                               ; preds = %35
  %40 = load ptr, ptr %9, align 8, !tbaa !22
  store i32 15, ptr %40, align 4, !tbaa !15
  %41 = load i32, ptr %14, align 4, !tbaa !14
  store i32 %41, ptr %5, align 4
  store i32 1, ptr %13, align 4
  br label %53

42:                                               ; preds = %35
  %43 = load ptr, ptr %6, align 8, !tbaa !17
  %44 = load i32, ptr %7, align 4, !tbaa !14
  %45 = load i32, ptr %14, align 4, !tbaa !14
  %46 = load ptr, ptr %9, align 8, !tbaa !22
  %47 = invoke i32 @u_terminateChars_77(ptr noundef %43, i32 noundef %44, i32 noundef %45, ptr noundef %46)
          to label %48 unwind label %49

48:                                               ; preds = %42
  store i32 %47, ptr %5, align 4
  store i32 1, ptr %13, align 4
  br label %53

49:                                               ; preds = %42
  %50 = landingpad { ptr, i32 }
          cleanup
  %51 = extractvalue { ptr, i32 } %50, 0
  store ptr %51, ptr %11, align 8
  %52 = extractvalue { ptr, i32 } %50, 1
  store i32 %52, ptr %12, align 4
  call void @llvm.lifetime.end.p0(i64 4, ptr %14) #13
  br label %55

53:                                               ; preds = %48, %39
  call void @llvm.lifetime.end.p0(i64 4, ptr %14) #13
  br label %54

54:                                               ; preds = %53, %30
  call void @_ZN6icu_7720CheckedArrayByteSinkD1Ev(ptr noundef nonnull align 8 dereferenceable(29) %10) #13
  call void @llvm.lifetime.end.p0(i64 32, ptr %10) #13
  br label %56

55:                                               ; preds = %49, %31
  call void @_ZN6icu_7720CheckedArrayByteSinkD1Ev(ptr noundef nonnull align 8 dereferenceable(29) %10) #13
  call void @llvm.lifetime.end.p0(i64 32, ptr %10) #13
  br label %58

56:                                               ; preds = %54, %19
  %57 = load i32, ptr %5, align 4
  ret i32 %57

58:                                               ; preds = %55
  %59 = load ptr, ptr %11, align 8
  %60 = load i32, ptr %12, align 4
  %61 = insertvalue { ptr, i32 } poison, ptr %59, 0
  %62 = insertvalue { ptr, i32 } %61, i32 %60, 1
  resume { ptr, i32 } %62
}

; Function Attrs: mustprogress nounwind uwtable
define linkonce_odr void @_ZN6icu_7711StringPieceC2EPKci(ptr noundef nonnull align 8 dereferenceable(12) %0, ptr noundef %1, i32 noundef %2) unnamed_addr #0 comdat align 2 {
  %4 = alloca ptr, align 8
  %5 = alloca ptr, align 8
  %6 = alloca i32, align 4
  store ptr %0, ptr %4, align 8, !tbaa !59
  store ptr %1, ptr %5, align 8, !tbaa !17
  store i32 %2, ptr %6, align 4, !tbaa !14
  %7 = load ptr, ptr %4, align 8
  %8 = getelementptr inbounds nuw %"class.icu_77::StringPiece", ptr %7, i32 0, i32 0
  %9 = load ptr, ptr %5, align 8, !tbaa !17
  store ptr %9, ptr %8, align 8, !tbaa !61
  %10 = getelementptr inbounds nuw %"class.icu_77::StringPiece", ptr %7, i32 0, i32 1
  %11 = load i32, ptr %6, align 4, !tbaa !14
  store i32 %11, ptr %10, align 8, !tbaa !63
  ret void
}

; Function Attrs: mustprogress nounwind uwtable
define internal noundef signext i8 @_ZL9checkArgsPKviPviP9UIDNAInfoP10UErrorCode(ptr noundef %0, i32 noundef %1, ptr noundef %2, i32 noundef %3, ptr noundef %4, ptr noundef %5) #0 {
  %7 = alloca i8, align 1
  %8 = alloca ptr, align 8
  %9 = alloca i32, align 4
  %10 = alloca ptr, align 8
  %11 = alloca i32, align 4
  %12 = alloca ptr, align 8
  %13 = alloca ptr, align 8
  store ptr %0, ptr %8, align 8, !tbaa !22
  store i32 %1, ptr %9, align 4, !tbaa !14
  store ptr %2, ptr %10, align 8, !tbaa !22
  store i32 %3, ptr %11, align 4, !tbaa !14
  store ptr %4, ptr %12, align 8, !tbaa !85
  store ptr %5, ptr %13, align 8, !tbaa !22
  %14 = load ptr, ptr %13, align 8, !tbaa !22
  %15 = load i32, ptr %14, align 4, !tbaa !15
  %16 = call noundef signext i8 @_ZL9U_FAILURE10UErrorCode(i32 noundef %15)
  %17 = icmp ne i8 %16, 0
  br i1 %17, label %18, label %19

18:                                               ; preds = %6
  store i8 0, ptr %7, align 1
  br label %66

19:                                               ; preds = %6
  %20 = load ptr, ptr %12, align 8, !tbaa !85
  %21 = icmp eq ptr %20, null
  br i1 %21, label %28, label %22

22:                                               ; preds = %19
  %23 = load ptr, ptr %12, align 8, !tbaa !85
  %24 = getelementptr inbounds nuw %struct.UIDNAInfo, ptr %23, i32 0, i32 0
  %25 = load i16, ptr %24, align 4, !tbaa !87
  %26 = sext i16 %25 to i32
  %27 = icmp slt i32 %26, 16
  br i1 %27, label %28, label %30

28:                                               ; preds = %22, %19
  %29 = load ptr, ptr %13, align 8, !tbaa !22
  store i32 1, ptr %29, align 4, !tbaa !15
  store i8 0, ptr %7, align 1
  br label %66

30:                                               ; preds = %22
  %31 = load ptr, ptr %8, align 8, !tbaa !22
  %32 = icmp eq ptr %31, null
  br i1 %32, label %33, label %36

33:                                               ; preds = %30
  %34 = load i32, ptr %9, align 4, !tbaa !14
  %35 = icmp ne i32 %34, 0
  br i1 %35, label %55, label %39

36:                                               ; preds = %30
  %37 = load i32, ptr %9, align 4, !tbaa !14
  %38 = icmp slt i32 %37, -1
  br i1 %38, label %55, label %39

39:                                               ; preds = %36, %33
  %40 = load ptr, ptr %10, align 8, !tbaa !22
  %41 = icmp eq ptr %40, null
  br i1 %41, label %42, label %45

42:                                               ; preds = %39
  %43 = load i32, ptr %11, align 4, !tbaa !14
  %44 = icmp ne i32 %43, 0
  br i1 %44, label %55, label %48

45:                                               ; preds = %39
  %46 = load i32, ptr %11, align 4, !tbaa !14
  %47 = icmp slt i32 %46, 0
  br i1 %47, label %55, label %48

48:                                               ; preds = %45, %42
  %49 = load ptr, ptr %10, align 8, !tbaa !22
  %50 = load ptr, ptr %8, align 8, !tbaa !22
  %51 = icmp eq ptr %49, %50
  br i1 %51, label %52, label %57

52:                                               ; preds = %48
  %53 = load ptr, ptr %8, align 8, !tbaa !22
  %54 = icmp ne ptr %53, null
  br i1 %54, label %55, label %57

55:                                               ; preds = %52, %45, %42, %36, %33
  %56 = load ptr, ptr %13, align 8, !tbaa !22
  store i32 1, ptr %56, align 4, !tbaa !15
  store i8 0, ptr %7, align 1
  br label %66

57:                                               ; preds = %52, %48
  %58 = load ptr, ptr %12, align 8, !tbaa !85
  %59 = getelementptr inbounds nuw %struct.UIDNAInfo, ptr %58, i32 0, i32 0
  %60 = getelementptr inbounds i16, ptr %59, i64 1
  %61 = load ptr, ptr %12, align 8, !tbaa !85
  %62 = getelementptr inbounds nuw %struct.UIDNAInfo, ptr %61, i32 0, i32 0
  %63 = load i16, ptr %62, align 4, !tbaa !87
  %64 = sext i16 %63 to i64
  %65 = sub i64 %64, 2
  call void @llvm.memset.p0.i64(ptr align 2 %60, i8 0, i64 %65, i1 false)
  store i8 1, ptr %7, align 1
  br label %66

66:                                               ; preds = %57, %55, %28, %18
  %67 = load i8, ptr %7, align 1
  ret i8 %67
}

; Function Attrs: mustprogress uwtable
define i32 @uidna_labelToUnicodeUTF8_77(ptr noundef %0, ptr noundef %1, i32 noundef %2, ptr noundef %3, i32 noundef %4, ptr noundef %5, ptr noundef %6) #1 {
  %8 = alloca i32, align 4
  %9 = alloca ptr, align 8
  %10 = alloca ptr, align 8
  %11 = alloca i32, align 4
  %12 = alloca ptr, align 8
  %13 = alloca i32, align 4
  %14 = alloca ptr, align 8
  %15 = alloca ptr, align 8
  %16 = alloca %"class.icu_77::StringPiece", align 8
  %17 = alloca %class.anon.1, align 8
  store ptr %0, ptr %9, align 8, !tbaa !83
  store ptr %1, ptr %10, align 8, !tbaa !17
  store i32 %2, ptr %11, align 4, !tbaa !14
  store ptr %3, ptr %12, align 8, !tbaa !17
  store i32 %4, ptr %13, align 4, !tbaa !14
  store ptr %5, ptr %14, align 8, !tbaa !85
  store ptr %6, ptr %15, align 8, !tbaa !22
  %18 = load ptr, ptr %10, align 8, !tbaa !17
  %19 = load i32, ptr %11, align 4, !tbaa !14
  %20 = load ptr, ptr %12, align 8, !tbaa !17
  %21 = load i32, ptr %13, align 4, !tbaa !14
  %22 = load ptr, ptr %14, align 8, !tbaa !85
  %23 = load ptr, ptr %15, align 8, !tbaa !22
  %24 = call noundef signext i8 @_ZL9checkArgsPKviPviP9UIDNAInfoP10UErrorCode(ptr noundef %18, i32 noundef %19, ptr noundef %20, i32 noundef %21, ptr noundef %22, ptr noundef %23)
  %25 = icmp ne i8 %24, 0
  br i1 %25, label %27, label %26

26:                                               ; preds = %7
  store i32 0, ptr %8, align 4
  br label %46

27:                                               ; preds = %7
  call void @llvm.lifetime.start.p0(i64 16, ptr %16) #13
  %28 = load ptr, ptr %10, align 8, !tbaa !17
  %29 = load i32, ptr %11, align 4, !tbaa !14
  %30 = icmp slt i32 %29, 0
  br i1 %30, label %31, label %35

31:                                               ; preds = %27
  %32 = load ptr, ptr %10, align 8, !tbaa !17
  %33 = call i64 @strlen(ptr noundef %32) #16
  %34 = trunc i64 %33 to i32
  br label %37

35:                                               ; preds = %27
  %36 = load i32, ptr %11, align 4, !tbaa !14
  br label %37

37:                                               ; preds = %35, %31
  %38 = phi i32 [ %34, %31 ], [ %36, %35 ]
  call void @_ZN6icu_7711StringPieceC2EPKci(ptr noundef nonnull align 8 dereferenceable(12) %16, ptr noundef %28, i32 noundef %38)
  %39 = load ptr, ptr %12, align 8, !tbaa !17
  %40 = load i32, ptr %13, align 4, !tbaa !14
  call void @llvm.lifetime.start.p0(i64 24, ptr %17) #13
  %41 = getelementptr inbounds nuw %class.anon.1, ptr %17, i32 0, i32 0
  store ptr %9, ptr %41, align 8, !tbaa !101
  %42 = getelementptr inbounds nuw %class.anon.1, ptr %17, i32 0, i32 1
  store ptr %16, ptr %42, align 8, !tbaa !59
  %43 = getelementptr inbounds nuw %class.anon.1, ptr %17, i32 0, i32 2
  store ptr %14, ptr %43, align 8, !tbaa !104
  %44 = load ptr, ptr %15, align 8, !tbaa !22
  %45 = call noundef i32 @"_ZN6icu_7712ByteSinkUtil28viaByteSinkToTerminatedCharsIZ27uidna_labelToUnicodeUTF8_77E3$_0vEEiPciOT_R10UErrorCode"(ptr noundef %39, i32 noundef %40, ptr noundef nonnull align 8 dereferenceable(24) %17, ptr noundef nonnull align 4 dereferenceable(4) %44)
  store i32 %45, ptr %8, align 4
  call void @llvm.lifetime.end.p0(i64 24, ptr %17) #13
  call void @llvm.lifetime.end.p0(i64 16, ptr %16) #13
  br label %46

46:                                               ; preds = %37, %26
  %47 = load i32, ptr %8, align 4
  ret i32 %47
}